(lp0
S'in my miNd'
p1
aS'Words'
p2
aS'The Mack'
p3
aS'I Would Like'
p4
aS'Starboy'
p5
aS'Call on Me - Ryan Riback Remix'
p6
aS'I Got You'
p7
aS'Wake Up Where You Are'
p8
aS'Come First'
p9
aS'Marie - Alarm'
p10
aS'My Way'
p11
aS'Trust Nobody'
p12
aS'Let Me Hold You (Turn Me On)'
p13
aS'Bad Things - With Camila Cabello'
p14
aS'Sweet Caroline'
p15
aS'Fireflies'
p16
aS'Billionaire (feat. Bruno Mars)'
p17
aS'Hurts So Good'
p18
aS'Wake Me Up'
p19
aS'Pretty Girls (feat. Travie McCoy)'
p20
aS'Make Me (Cry)'
p21
aS'Make Me Like You'
p22
aS'Where Are \xdc Now'
p23
aS'To \xdc (feat. AlunaGeorge)'
p24
aS'Final Song - Diplo & Jauz Remix'
p25
aS'Two Minds'
p26
aS'Replay'
p27
aS'Levels - Radio Edit'
p28
aS'Hey Brother - Extended Version'
p29
aS'Shape of You'
p30
aS'All Time Low'
p31
aS'Reggaet\xf3n Lento (Bailemos)'
p32
aS'Just Hold On'
p33
aS'Castle on the Hill'
p34
aS'Paris'
p35
aS'Alone'
p36
aS'Thinking Out Loud'
p37
aS'The A Team'
p38
aS'Sex'
p39
aS'Somebody'
p40
aS'Am I Wrong'
p41
aS'Classic'
p42
aS'Knock You Down'
p43
aS'Hey, Soul Sister'
p44
aS"DJ Got Us Fallin' In Love"
p45
aS'Never Say Never'
p46
aS'Look After You'
p47
aS'Over My Head (Cable Car)'
p48
aS'Do It Again'
p49
aS'100 Years: Music Video'
p50
aS'Guys My Age'
p51
aS'You Know You Like It'
p52
aS'Too Soon'
p53
aS'Something Big'
p54
aS'No Problem (feat. Lil Wayne & 2 Chainz)'
p55
aS'F**k With U'
p56
aS'Apologize'
p57
aS'She Will Be Loved'
p58
aS'Good Life'
p59
aS'Chasing Cars'
p60
aS'Bubbly'
p61
aS'Unsteady'
p62
aS'Clarity'
p63
aS'Minnesota'
p64
aS'Sexual'
p65
aS'Issues'
p66
aS'Good Time'
p67
aS"Don't Wake Me Up"
p68
aS'Rap God'
p69
aS'Hey There Delilah'
p70
aS'Guilty Conscience'
p71
aS'Kitchen Feat Young Jeezy & Pusha T'
p72
aS'Love The Way You Lie'
p73
aS'The Monster'
p74
aS'Lose Yourself - Soundtrack Version'
p75
aS"That's What I Like"
p76
aS'Congratulations'
p77
aS'Lighters'
p78
aS'Dirty Money - Coming Home'
p79
aS'In My Head'
p80
aS'Yo - Closer'
p81
aS'Sooner Or Later'
p82
aS'September Song'
p83
aS"It Ain't Me (with Selena Gomez)"
p84
aS'That\xb4s Me'
p85
aS'Where Them Girls At - feat. Nicki Minaj & Flo Rida'
p86
aS'Whatcha Say'
p87
aS'Without You (feat. Usher)'
p88
aS'Cold'
p89
aS'Weak'
p90
aS'Love Lockdown'
p91
aS'Something Just Like This'
p92
aS'Touch'
p93
aS'Oh Devil'
p94
aS'Light'
p95
aS'History'
p96
aS'Believer'
p97
aS'Stay (with Alessia Cara)'
p98
aS'Bangarang (feat. Sirah)'
p99
aS'Five Hours'
p100
aS'Takes My Body Higher (feat. Lincoln Jesser)'
p101
aS'Rolex'
p102
aS'Our City (feat. Emilie Adams)'
p103
aS'Rewind (feat. Sophie Strauss)'
p104
aS'Fast Car - Radio Edit'
p105
aS'Headlights (feat. Ilsey)'
p106
aS'The Days'
p107
aS'Dear Boy'
p108
aS'Love On Me'
p109
aS'Runaway (U & I)'
p110
aS'No Money'
p111
aS'Rich Boy'
p112
aS'The Nights'
p113
aS'Waiting For Love'
p114
aS'Mockingbird'
p115
aS'City Lights'
p116
aS'Beautiful Now'
p117
aS"Don't You Worry Child (Radio Edit) [feat. John Martin]"
p118
aS'Red Lights'
p119
aS'Cinema - Skrillex Remix'
p120
aS'I Want You To Know'
p121
aS'I Could Be The One (Avicii Vs. Nicky Romero) - Nicktim / Radio Edit'
p122
aS"Don't Look Down"
p123
aS'Hope'
p124
aS'The Things You Do'
p125
aS'You'
p126
aS'Hung Up'
p127
aS'Summer Air'
p128
aS'On My Way'
p129
aS'For A Better Day'
p130
aS'Pure Grinding'
p131
a.'There is noting playing at this moment'
p132
a.