(lp0
S'Believer'
p1
aS'Oh Devil'
p2
aS'Doubt (Summer Edit)'
p3
aS'Our City (feat. Emilie Adams)'
p4
aS'Rewind (feat. Sophie Strauss)'
p5
aS'Fast Car - Radio Edit'
p6
aS'Five Hours'
p7
aS'Something Just Like This'
p8
aS'Cold'
p9
aS'Weak'
p10
aS'Sooner Or Later'
p11
aS'September Song'
p12
a.